target datalayout = "e-m:e-p270:32:32-p271:32:32-p272:64:64-i64:64-i128:128-f80:128-n8:16:32:64-S128"
target triple = "x86_64-unknown-linux-gnu"

%"class.node::crypto::ManagedEVPPKey" = type { %"class.node::MemoryRetainer", %"class.std::unique_ptr", %"class.std::shared_ptr" }
%"class.node::MemoryRetainer" = type { ptr }
%"class.std::unique_ptr" = type { %"struct.std::__uniq_ptr_data" }
%"struct.std::__uniq_ptr_data" = type { %"class.std::__uniq_ptr_impl" }
%"class.std::__uniq_ptr_impl" = type { %"class.std::tuple" }
%"class.std::tuple" = type { %"struct.std::_Tuple_impl" }
%"struct.std::_Tuple_impl" = type { %"struct.std::_Head_base.1" }
%"struct.std::_Head_base.1" = type { ptr }
%"class.std::shared_ptr" = type { %"class.std::__shared_ptr" }
%"class.std::__shared_ptr" = type { ptr, %"class.std::__shared_count" }
%"class.std::__shared_count" = type { ptr }
%"class.node::crypto::KeyObjectData" = type { %"class.node::MemoryRetainer", i32, %"class.node::crypto::ByteSource", %"class.node::crypto::ManagedEVPPKey" }
%"class.node::crypto::ByteSource" = type { ptr, ptr, i64 }

@_ZN4node6crypto14ManagedEVPPKeyC1ERKS1_ = dso_local unnamed_addr alias void (ptr, ptr), ptr @_ZN4node6crypto14ManagedEVPPKeyC2ERKS1_

; Function Attrs: mustprogress nounwind uwtable
define linkonce_odr dso_local void @_ZN4node6crypto10ByteSourceC2Ev(ptr noundef nonnull align 8 dereferenceable(24) %this) unnamed_addr #4 comdat align 2 {
entry:
  %this.addr = alloca ptr, align 8
  store ptr %this, ptr %this.addr, align 8
  %this1 = load ptr, ptr %this.addr, align 8
  %data_ = getelementptr inbounds %"class.node::crypto::ByteSource", ptr %this1, i32 0, i32 0
  store ptr null, ptr %data_, align 8
  %allocated_data_ = getelementptr inbounds %"class.node::crypto::ByteSource", ptr %this1, i32 0, i32 1
  store ptr null, ptr %allocated_data_, align 8
  %size_ = getelementptr inbounds %"class.node::crypto::ByteSource", ptr %this1, i32 0, i32 2
  store i64 0, ptr %size_, align 8
  ret void
}

; Function Attrs: mustprogress nounwind uwtable
define linkonce_odr dso_local void @_ZN4node14MemoryRetainerC2Ev(ptr noundef nonnull align 8 dereferenceable(8) %this) unnamed_addr #4 comdat align 2 {
entry:
  %this.addr = alloca ptr, align 8
  store ptr %this, ptr %this.addr, align 8
  %this1 = load ptr, ptr %this.addr, align 8
  store ptr getelementptr inbounds ({ [10 x ptr] }, ptr @_ZTVN4node14MemoryRetainerE, i32 0, i32 0, i32 2), ptr %this1, align 8
  ret void
}

; Function Attrs: mustprogress nounwind uwtable
define dso_local void @_ZN4node6crypto13KeyObjectDataC2ENS0_7KeyTypeERKNS0_14ManagedEVPPKeyE(ptr noundef nonnull align 8 dereferenceable(72) %this, i32 noundef %type, ptr noundef nonnull align 8 dereferenceable(32) %pkey) unnamed_addr #4 align 2 {
entry:
  %this.addr = alloca ptr, align 8
  %type.addr = alloca i32, align 4
  %pkey.addr = alloca ptr, align 8
  store ptr %this, ptr %this.addr, align 8
  store i32 %type, ptr %type.addr, align 4
  store ptr %pkey, ptr %pkey.addr, align 8
  %this1 = load ptr, ptr %this.addr, align 8
  call void @_ZN4node14MemoryRetainerC2Ev(ptr noundef nonnull align 8 dereferenceable(8) %this1) #3
  store ptr getelementptr inbounds ({ [10 x ptr] }, ptr @_ZTVN4node6crypto13KeyObjectDataE, i32 0, i32 0, i32 2), ptr %this1, align 8
  %key_type_ = getelementptr inbounds %"class.node::crypto::KeyObjectData", ptr %this1, i32 0, i32 1
  %0 = load i32, ptr %type.addr, align 4
  store i32 %0, ptr %key_type_, align 8
  %symmetric_key_ = getelementptr inbounds %"class.node::crypto::KeyObjectData", ptr %this1, i32 0, i32 2
  call void @llvm.memset.p0.i64(ptr align 8 %symmetric_key_, i8 0, i64 24, i1 false)
  call void @_ZN4node6crypto10ByteSourceC2Ev(ptr noundef nonnull align 8 dereferenceable(24) %symmetric_key_) #3
  %asymmetric_key_ = getelementptr inbounds %"class.node::crypto::KeyObjectData", ptr %this1, i32 0, i32 3
  %1 = load ptr, ptr %pkey.addr, align 8
  call void @_ZN4node6crypto14ManagedEVPPKeyC1ERKS1_(ptr noundef nonnull align 8 dereferenceable(32) %asymmetric_key_, ptr noundef nonnull align 8 dereferenceable(32) %1)
  ret void
}