; Function Attrs: mustprogress nounwind uwtable
define dso_local void @_ZN4node6crypto13KeyObjectDataC2ENS0_7KeyTypeERKNS0_14ManagedEVPPKeyE(ptr noundef nonnull align 8 dereferenceable(72) %this, i32 noundef %type, ptr nocapture noundef nonnull readonly align 8 dereferenceable(32) %pkey) unnamed_addr #3 align 2 {
entry:
  store ptr getelementptr inbounds ({ [10 x ptr] }, ptr @_ZTVN4node6crypto13KeyObjectDataE, i64 0, i32 0, i64 2), ptr %this, align 8
  %key_type_ = getelementptr inbounds i8, ptr %this, i64 8
  store i32 %type, ptr %key_type_, align 8
  %symmetric_key_ = getelementptr inbounds i8, ptr %this, i64 16
  %asymmetric_key_ = getelementptr inbounds i8, ptr %this, i64 40
  tail call void @llvm.memset.p0.i64(ptr noundef nonnull align 8 dereferenceable(24) %symmetric_key_, i8 0, i64 24, i1 false)
  store ptr getelementptr inbounds ({ [10 x ptr] }, ptr @_ZTVN4node6crypto14ManagedEVPPKeyE, i64 0, i32 0, i64 2), ptr %asymmetric_key_, align 8
  %pkey_.i = getelementptr inbounds i8, ptr %this, i64 48
  tail call void @llvm.memset.p0.i64(ptr noundef nonnull align 8 dereferenceable(24) %pkey_.i, i8 0, i64 24, i1 false)
  %call.i = tail call noundef nonnull align 8 dereferenceable(32) ptr @_ZN4node6crypto14ManagedEVPPKeyaSERKS1_(ptr noundef nonnull align 8 dereferenceable(32) %asymmetric_key_, ptr noundef nonnull align 8 dereferenceable(32) %pkey)
  ret void
}